; ModuleID = '28/386.c'
source_filename = "28/386.c"
target datalayout = "e-m:e-p270:32:32-p271:32:32-p272:64:64-i64:64-f80:128-n8:16:32:64-S128"
target triple = "x86_64-pc-linux-gnu"

@.str = private unnamed_addr constant [4 x i8] c"%d,\00", align 1
@.str.1 = private unnamed_addr constant [3 x i8] c"%d\00", align 1

; Function Attrs: noinline nounwind uwtable
define dso_local void @main() #0 {
  %1 = alloca [10000 x i8], align 16
  %2 = alloca i8*, align 8
  %3 = alloca i32, align 4
  store i32 0, i32* %3, align 4
  %4 = getelementptr inbounds [10000 x i8], [10000 x i8]* %1, i64 0, i64 0
  %5 = call i32 (i8*, ...) bitcast (i32 (...)* @gets to i32 (i8*, ...)*)(i8* %4)
  %6 = getelementptr inbounds [10000 x i8], [10000 x i8]* %1, i64 0, i64 0
  store i8* %6, i8** %2, align 8
  br label %7

7:                                                ; preds = %32, %0
  %8 = load i8*, i8** %2, align 8
  %9 = load i8, i8* %8, align 1
  %10 = sext i8 %9 to i32
  %11 = icmp ne i32 %10, 0
  br i1 %11, label %12, label %35

12:                                               ; preds = %7
  %13 = load i8*, i8** %2, align 8
  %14 = load i8, i8* %13, align 1
  %15 = sext i8 %14 to i32
  %16 = icmp ne i32 %15, 32
  br i1 %16, label %17, label %20

17:                                               ; preds = %12
  %18 = load i32, i32* %3, align 4
  %19 = add nsw i32 %18, 1
  store i32 %19, i32* %3, align 4
  br label %31

20:                                               ; preds = %12
  %21 = load i32, i32* %3, align 4
  %22 = icmp ne i32 %21, 0
  %23 = zext i1 %22 to i32
  %24 = trunc i32 %23 to i8
  %25 = load i8*, i8** %2, align 8
  store i8 %24, i8* %25, align 1
  %26 = icmp ne i8 %24, 0
  br i1 %26, label %27, label %30

27:                                               ; preds = %20
  %28 = load i32, i32* %3, align 4
  %29 = call i32 (i8*, ...) @printf(i8* getelementptr inbounds ([4 x i8], [4 x i8]* @.str, i64 0, i64 0), i32 %28)
  store i32 0, i32* %3, align 4
  br label %30

30:                                               ; preds = %27, %20
  br label %31

31:                                               ; preds = %30, %17
  br label %32

32:                                               ; preds = %31
  %33 = load i8*, i8** %2, align 8
  %34 = getelementptr inbounds i8, i8* %33, i32 1
  store i8* %34, i8** %2, align 8
  br label %7

35:                                               ; preds = %7
  %36 = load i32, i32* %3, align 4
  %37 = call i32 (i8*, ...) @printf(i8* getelementptr inbounds ([3 x i8], [3 x i8]* @.str.1, i64 0, i64 0), i32 %36)
  ret void
}

declare dso_local i32 @gets(...) #1

declare dso_local i32 @printf(i8*, ...) #1


!llvm.module.flags = !{!0}
!llvm.ident = !{!1}

!0 = !{i32 1, !"wchar_size", i32 4}
!1 = !{!"clang version 10.0.0-4ubuntu1 "}
